; ModuleID = '17/854.c'
source_filename = "17/854.c"
target datalayout = "e-m:e-p270:32:32-p271:32:32-p272:64:64-i64:64-f80:128-n8:16:32:64-S128"
target triple = "x86_64-pc-linux-gnu"

@.str = private unnamed_addr constant [4 x i8] c"%d\0A\00", align 1

; Function Attrs: noinline nounwind uwtable
define dso_local void @match(i8* %0) #0 {
  %2 = alloca i8*, align 8
  %3 = alloca [100 x i32], align 16
  %4 = alloca i32, align 4
  %5 = alloca i32, align 4
  store i8* %0, i8** %2, align 8
  store i32 0, i32* %5, align 4
  store i32 0, i32* %4, align 4
  br label %6

6:                                                ; preds = %72, %1
  %7 = load i8*, i8** %2, align 8
  %8 = load i32, i32* %4, align 4
  %9 = sext i32 %8 to i64
  %10 = getelementptr inbounds i8, i8* %7, i64 %9
  %11 = load i8, i8* %10, align 1
  %12 = sext i8 %11 to i32
  %13 = icmp ne i32 %12, 0
  br i1 %13, label %14, label %75

14:                                               ; preds = %6
  %15 = load i8*, i8** %2, align 8
  %16 = load i32, i32* %4, align 4
  %17 = sext i32 %16 to i64
  %18 = getelementptr inbounds i8, i8* %15, i64 %17
  %19 = load i8, i8* %18, align 1
  %20 = sext i8 %19 to i32
  %21 = icmp eq i32 %20, 40
  br i1 %21, label %22, label %33

22:                                               ; preds = %14
  %23 = load i8*, i8** %2, align 8
  %24 = load i32, i32* %4, align 4
  %25 = sext i32 %24 to i64
  %26 = getelementptr inbounds i8, i8* %23, i64 %25
  store i8 36, i8* %26, align 1
  %27 = load i32, i32* %4, align 4
  %28 = load i32, i32* %5, align 4
  %29 = sext i32 %28 to i64
  %30 = getelementptr inbounds [100 x i32], [100 x i32]* %3, i64 0, i64 %29
  store i32 %27, i32* %30, align 4
  %31 = load i32, i32* %5, align 4
  %32 = add nsw i32 %31, 1
  store i32 %32, i32* %5, align 4
  br label %71

33:                                               ; preds = %14
  %34 = load i8*, i8** %2, align 8
  %35 = load i32, i32* %4, align 4
  %36 = sext i32 %35 to i64
  %37 = getelementptr inbounds i8, i8* %34, i64 %36
  %38 = load i8, i8* %37, align 1
  %39 = sext i8 %38 to i32
  %40 = icmp eq i32 %39, 41
  br i1 %40, label %41, label %65

41:                                               ; preds = %33
  %42 = load i32, i32* %5, align 4
  %43 = icmp sgt i32 %42, 0
  br i1 %43, label %44, label %59

44:                                               ; preds = %41
  %45 = load i8*, i8** %2, align 8
  %46 = load i32, i32* %4, align 4
  %47 = sext i32 %46 to i64
  %48 = getelementptr inbounds i8, i8* %45, i64 %47
  store i8 32, i8* %48, align 1
  %49 = load i8*, i8** %2, align 8
  %50 = load i32, i32* %5, align 4
  %51 = sub nsw i32 %50, 1
  %52 = sext i32 %51 to i64
  %53 = getelementptr inbounds [100 x i32], [100 x i32]* %3, i64 0, i64 %52
  %54 = load i32, i32* %53, align 4
  %55 = sext i32 %54 to i64
  %56 = getelementptr inbounds i8, i8* %49, i64 %55
  store i8 32, i8* %56, align 1
  %57 = load i32, i32* %5, align 4
  %58 = add nsw i32 %57, -1
  store i32 %58, i32* %5, align 4
  br label %64

59:                                               ; preds = %41
  %60 = load i8*, i8** %2, align 8
  %61 = load i32, i32* %4, align 4
  %62 = sext i32 %61 to i64
  %63 = getelementptr inbounds i8, i8* %60, i64 %62
  store i8 63, i8* %63, align 1
  br label %64

64:                                               ; preds = %59, %44
  br label %70

65:                                               ; preds = %33
  %66 = load i8*, i8** %2, align 8
  %67 = load i32, i32* %4, align 4
  %68 = sext i32 %67 to i64
  %69 = getelementptr inbounds i8, i8* %66, i64 %68
  store i8 32, i8* %69, align 1
  br label %70

70:                                               ; preds = %65, %64
  br label %71

71:                                               ; preds = %70, %22
  br label %72

72:                                               ; preds = %71
  %73 = load i32, i32* %4, align 4
  %74 = add nsw i32 %73, 1
  store i32 %74, i32* %4, align 4
  br label %6

75:                                               ; preds = %6
  ret void
}

; Function Attrs: noinline nounwind uwtable
define dso_local i32 @main() #0 {
  %1 = alloca i32, align 4
  %2 = alloca i32, align 4
  %3 = alloca i32, align 4
  %4 = alloca [101 x i8], align 16
  store i32 0, i32* %1, align 4
  %5 = call i32 (i8*, ...) @__isoc99_scanf(i8* getelementptr inbounds ([4 x i8], [4 x i8]* @.str, i64 0, i64 0), i32* %2)
  store i32 0, i32* %3, align 4
  br label %6

6:                                                ; preds = %18, %0
  %7 = load i32, i32* %3, align 4
  %8 = load i32, i32* %2, align 4
  %9 = icmp slt i32 %7, %8
  br i1 %9, label %10, label %21

10:                                               ; preds = %6
  %11 = getelementptr inbounds [101 x i8], [101 x i8]* %4, i64 0, i64 0
  %12 = call i32 (i8*, ...) bitcast (i32 (...)* @gets to i32 (i8*, ...)*)(i8* %11)
  %13 = getelementptr inbounds [101 x i8], [101 x i8]* %4, i64 0, i64 0
  %14 = call i32 @puts(i8* %13)
  %15 = getelementptr inbounds [101 x i8], [101 x i8]* %4, i64 0, i64 0
  call void @match(i8* %15)
  %16 = getelementptr inbounds [101 x i8], [101 x i8]* %4, i64 0, i64 0
  %17 = call i32 @puts(i8* %16)
  br label %18

18:                                               ; preds = %10
  %19 = load i32, i32* %3, align 4
  %20 = add nsw i32 %19, 1
  store i32 %20, i32* %3, align 4
  br label %6

21:                                               ; preds = %6
  ret i32 0
}

declare dso_local i32 @__isoc99_scanf(i8*, ...) #1

declare dso_local i32 @gets(...) #1

declare dso_local i32 @puts(i8*) #1


!llvm.module.flags = !{!0}
!llvm.ident = !{!1}

!0 = !{i32 1, !"wchar_size", i32 4}
!1 = !{!"clang version 10.0.0-4ubuntu1 "}
